target datalayout = "e-m:e-p270:32:32-p271:32:32-p272:64:64-i64:64-i128:128-f80:128-n8:16:32:64-S128"
target triple = "x86_64-pc-linux-gnu"

%struct.CodedBitstreamContext = type { ptr, ptr, ptr, ptr, i32, i32, i32, ptr, ptr, ptr, ptr, i64 }
%struct.CodedBitstreamAV1Context = type { ptr, ptr, ptr, i32, ptr, ptr, i64, i32, i32, i32, i32, i32, i32, i32, i32, i32, i32, i32, i32, i32, i32, i32, i32, [8 x i32], [8 x i32], [8 x %struct.AV1ReferenceFrameState], i32, i32, [8 x i8], [2 x i8], [8 x [8 x i8]], [8 x [8 x i16]] }
%struct.AV1ReferenceFrameState = type { i32, i32, i32, i32, i32, i32, i32, i32, i32, i32, i32, i32, [8 x i32], [8 x i8], [2 x i8], [8 x [8 x i8]], [8 x [8 x i16]] }

; Function Attrs: nounwind uwtable
define internal void @cbs_av1_flush(ptr noundef %0) #0 {
  %2 = alloca ptr, align 8
  %3 = alloca ptr, align 8
  store ptr %0, ptr %2, align 8, !tbaa !4
  call void @llvm.lifetime.start.p0(i64 8, ptr %3) #8
  %4 = load ptr, ptr %2, align 8, !tbaa !4
  %5 = getelementptr inbounds nuw %struct.CodedBitstreamContext, ptr %4, i32 0, i32 2
  %6 = load ptr, ptr %5, align 8, !tbaa !36
  store ptr %6, ptr %3, align 8, !tbaa !37
  %7 = load ptr, ptr %3, align 8, !tbaa !37
  %8 = getelementptr inbounds nuw %struct.CodedBitstreamAV1Context, ptr %7, i32 0, i32 4
  call void @av_buffer_unref(ptr noundef %8)
  %9 = load ptr, ptr %3, align 8, !tbaa !37
  %10 = getelementptr inbounds nuw %struct.CodedBitstreamAV1Context, ptr %9, i32 0, i32 1
  store ptr null, ptr %10, align 8, !tbaa !67
  %11 = load ptr, ptr %3, align 8, !tbaa !37
  %12 = getelementptr inbounds nuw %struct.CodedBitstreamAV1Context, ptr %11, i32 0, i32 5
  store ptr null, ptr %12, align 8, !tbaa !95
  %13 = load ptr, ptr %3, align 8, !tbaa !37
  %14 = getelementptr inbounds nuw %struct.CodedBitstreamAV1Context, ptr %13, i32 0, i32 25
  %15 = getelementptr inbounds [8 x %struct.AV1ReferenceFrameState], ptr %14, i64 0, i64 0
  call void @llvm.memset.p0.i64(ptr align 8 %15, i8 0, i64 2272, i1 false)
  %16 = load ptr, ptr %3, align 8, !tbaa !37
  %17 = getelementptr inbounds nuw %struct.CodedBitstreamAV1Context, ptr %16, i32 0, i32 9
  store i32 0, ptr %17, align 8, !tbaa !51
  %18 = load ptr, ptr %3, align 8, !tbaa !37
  %19 = getelementptr inbounds nuw %struct.CodedBitstreamAV1Context, ptr %18, i32 0, i32 3
  store i32 0, ptr %19, align 8, !tbaa !96
  %20 = load ptr, ptr %3, align 8, !tbaa !37
  %21 = getelementptr inbounds nuw %struct.CodedBitstreamAV1Context, ptr %20, i32 0, i32 22
  store i32 0, ptr %21, align 4, !tbaa !97
  call void @llvm.lifetime.end.p0(i64 8, ptr %3) #8
  ret void
}