; Function Attrs: nounwind uwtable
define internal void @cbs_av1_flush(ptr noundef readonly captures(none) %0) #0 {
  %2 = getelementptr inbounds nuw i8, ptr %0, i64 16
  %3 = load ptr, ptr %2, align 8, !tbaa !33
  %4 = getelementptr inbounds nuw i8, ptr %3, i64 32
  tail call void @av_buffer_unref(ptr noundef nonnull %4) #8
  %5 = getelementptr inbounds nuw i8, ptr %3, i64 8
  store ptr null, ptr %5, align 8, !tbaa !60
  %6 = getelementptr inbounds nuw i8, ptr %3, i64 40
  store ptr null, ptr %6, align 8, !tbaa !203
  %7 = getelementptr inbounds nuw i8, ptr %3, i64 184
  tail call void @llvm.memset.p0.i64(ptr noundef nonnull align 8 dereferenceable(2272) %7, i8 0, i64 2272, i1 false)
  %8 = getelementptr inbounds nuw i8, ptr %3, i64 64
  store i32 0, ptr %8, align 8, !tbaa !44
  %9 = getelementptr inbounds nuw i8, ptr %3, i64 24
  store i32 0, ptr %9, align 8, !tbaa !61
  %10 = getelementptr inbounds nuw i8, ptr %3, i64 116
  store i32 0, ptr %10, align 4, !tbaa !136
  ret void
}